target datalayout = "e-m:e-p270:32:32-p271:32:32-p272:64:64-i64:64-i128:128-f80:128-n8:16:32:64-S128"
target triple = "x86_64-unknown-linux-gnu"

%"class.icu_75::UObject" = type { ptr }
%"class.icu_75::UnicodeString" = type { %"class.icu_75::Replaceable", %"union.icu_75::UnicodeString::StackBufferOrFields" }
%"class.icu_75::Replaceable" = type { %"class.icu_75::UObject" }
%"union.icu_75::UnicodeString::StackBufferOrFields" = type { %struct.anon.0, [32 x i8] }
%struct.anon.0 = type { i16, i32, i32, ptr }
%"class.icu_75::Char16Ptr" = type { ptr }
%struct.anon = type { i16, [27 x i16] }

@_ZTIN6icu_7510DateFormatE = external constant ptr
@_ZTIN6icu_7518RelativeDateFormatE = external constant ptr
@_ZTVN6icu_7513UnicodeStringE = external unnamed_addr constant { [13 x ptr] }, align 8
@_ZTVN6icu_7511ReplaceableE = external unnamed_addr constant { [13 x ptr] }, align 8
@_ZTVN6icu_757UObjectE = external unnamed_addr constant { [5 x ptr] }, align 8

; Function Attrs: mustprogress nounwind uwtable
define linkonce_odr void @_ZN6icu_757UObjectC2Ev(ptr noundef nonnull align 8 dereferenceable(8) %this) unnamed_addr #0 comdat align 2 {
entry:
  %this.addr = alloca ptr, align 8
  store ptr %this, ptr %this.addr, align 8
  %this1 = load ptr, ptr %this.addr, align 8
  store ptr getelementptr inbounds ({ [5 x ptr] }, ptr @_ZTVN6icu_757UObjectE, i32 0, i32 0, i32 2), ptr %this1, align 8
  ret void
}

; Function Attrs: mustprogress nounwind uwtable
define linkonce_odr void @_ZN6icu_7511ReplaceableC2Ev(ptr noundef nonnull align 8 dereferenceable(8) %this) unnamed_addr #0 comdat align 2 {
entry:
  %this.addr = alloca ptr, align 8
  store ptr %this, ptr %this.addr, align 8
  %this1 = load ptr, ptr %this.addr, align 8
  call void @_ZN6icu_757UObjectC2Ev(ptr noundef nonnull align 8 dereferenceable(8) %this1) #6
  store ptr getelementptr inbounds ({ [13 x ptr] }, ptr @_ZTVN6icu_7511ReplaceableE, i32 0, i32 0, i32 2), ptr %this1, align 8
  ret void
}

; Function Attrs: mustprogress nounwind uwtable
define internal noundef signext i8 @_ZL9U_SUCCESS10UErrorCode(i32 noundef %code) #0 {
entry:
  %code.addr = alloca i32, align 4
  store i32 %code, ptr %code.addr, align 4
  %0 = load i32, ptr %code.addr, align 4
  %cmp = icmp sle i32 %0, 0
  %conv = zext i1 %cmp to i8
  ret i8 %conv
}

; Function Attrs: mustprogress nounwind uwtable
define linkonce_odr void @_ZN6icu_759Char16PtrD2Ev(ptr noundef nonnull align 8 dereferenceable(8) %this) unnamed_addr #0 comdat align 2 {
entry:
  %this.addr = alloca ptr, align 8
  store ptr %this, ptr %this.addr, align 8
  %this1 = load ptr, ptr %this.addr, align 8
  %p_ = getelementptr inbounds %"class.icu_75::Char16Ptr", ptr %this1, i32 0, i32 0
  %0 = load ptr, ptr %p_, align 8
  call void asm sideeffect "", "rm,~{memory},~{dirflag},~{fpsr},~{flags}"(ptr %0) #6, !srcloc !5
  ret void
}

; Function Attrs: mustprogress nounwind uwtable
define linkonce_odr void @_ZN6icu_759Char16PtrC2EPDs(ptr noundef nonnull align 8 dereferenceable(8) %this, ptr noundef %p) unnamed_addr #0 comdat align 2 {
entry:
  %this.addr = alloca ptr, align 8
  %p.addr = alloca ptr, align 8
  store ptr %this, ptr %this.addr, align 8
  store ptr %p, ptr %p.addr, align 8
  %this1 = load ptr, ptr %this.addr, align 8
  %p_ = getelementptr inbounds %"class.icu_75::Char16Ptr", ptr %this1, i32 0, i32 0
  %0 = load ptr, ptr %p.addr, align 8
  store ptr %0, ptr %p_, align 8
  ret void
}

; Function Attrs: mustprogress uwtable
define linkonce_odr void @_ZN6icu_7513UnicodeStringC2Ev(ptr noundef nonnull align 8 dereferenceable(64) %this) unnamed_addr #1 comdat align 2 {
entry:
  %this.addr = alloca ptr, align 8
  store ptr %this, ptr %this.addr, align 8
  %this1 = load ptr, ptr %this.addr, align 8
  call void @_ZN6icu_7511ReplaceableC2Ev(ptr noundef nonnull align 8 dereferenceable(8) %this1)
  store ptr getelementptr inbounds ({ [13 x ptr] }, ptr @_ZTVN6icu_7513UnicodeStringE, i32 0, i32 0, i32 2), ptr %this1, align 8
  %fUnion2 = getelementptr inbounds %"class.icu_75::UnicodeString", ptr %this1, i32 0, i32 1
  %fLengthAndFlags = getelementptr inbounds %struct.anon, ptr %fUnion2, i32 0, i32 0
  store i16 2, ptr %fLengthAndFlags, align 8
  ret void
}

; Function Attrs: mustprogress nounwind uwtable
define internal noundef signext i8 @_ZL9U_FAILURE10UErrorCode(i32 noundef %code) #0 {
entry:
  %code.addr = alloca i32, align 4
  store i32 %code, ptr %code.addr, align 4
  %0 = load i32, ptr %code.addr, align 4
  %cmp = icmp sgt i32 %0, 0
  %conv = zext i1 %cmp to i8
  ret i8 %conv
}

; Function Attrs: mustprogress nounwind uwtable
define internal void @_ZL26verifyIsRelativeDateFormatPKPvP10UErrorCode(ptr noundef %fmt, ptr noundef %status) #0 {
entry:
  %fmt.addr = alloca ptr, align 8
  %status.addr = alloca ptr, align 8
  store ptr %fmt, ptr %fmt.addr, align 8
  store ptr %status, ptr %status.addr, align 8
  %0 = load ptr, ptr %status.addr, align 8
  %1 = load i32, ptr %0, align 4
  %call = call noundef signext i8 @_ZL9U_SUCCESS10UErrorCode(i32 noundef %1)
  %tobool = icmp ne i8 %call, 0
  br i1 %tobool, label %land.lhs.true, label %if.end

land.lhs.true:                                    ; preds = %entry
  %2 = load ptr, ptr %fmt.addr, align 8
  %3 = icmp eq ptr %2, null
  br i1 %3, label %dynamic_cast.null, label %dynamic_cast.notnull

dynamic_cast.notnull:                             ; preds = %land.lhs.true
  %4 = call ptr @__dynamic_cast(ptr %2, ptr @_ZTIN6icu_7510DateFormatE, ptr @_ZTIN6icu_7518RelativeDateFormatE, i64 0) #6
  br label %dynamic_cast.end

dynamic_cast.null:                                ; preds = %land.lhs.true
  br label %dynamic_cast.end

dynamic_cast.end:                                 ; preds = %dynamic_cast.null, %dynamic_cast.notnull
  %5 = phi ptr [ %4, %dynamic_cast.notnull ], [ null, %dynamic_cast.null ]
  %cmp = icmp eq ptr %5, null
  br i1 %cmp, label %if.then, label %if.end

if.then:                                          ; preds = %dynamic_cast.end
  %6 = load ptr, ptr %status.addr, align 8
  store i32 1, ptr %6, align 4
  br label %if.end

if.end:                                           ; preds = %if.then, %dynamic_cast.end, %entry
  ret void
}

; Function Attrs: mustprogress uwtable
define i32 @udat_toPatternRelativeDate_75(ptr noundef %fmt, ptr noundef %result, i32 noundef %resultLength, ptr noundef %status) #1 personality ptr @__gxx_personality_v0 {
entry:
  %retval = alloca i32, align 4
  %fmt.addr = alloca ptr, align 8
  %result.addr = alloca ptr, align 8
  %resultLength.addr = alloca i32, align 4
  %status.addr = alloca ptr, align 8
  %datePattern = alloca %"class.icu_75::UnicodeString", align 8
  %exn.slot = alloca ptr, align 8
  %ehselector.slot = alloca i32, align 4
  %agg.tmp = alloca %"class.icu_75::Char16Ptr", align 8
  store ptr %fmt, ptr %fmt.addr, align 8
  store ptr %result, ptr %result.addr, align 8
  store i32 %resultLength, ptr %resultLength.addr, align 4
  store ptr %status, ptr %status.addr, align 8
  %0 = load ptr, ptr %fmt.addr, align 8
  %1 = load ptr, ptr %status.addr, align 8
  call void @_ZL26verifyIsRelativeDateFormatPKPvP10UErrorCode(ptr noundef %0, ptr noundef %1)
  %2 = load ptr, ptr %status.addr, align 8
  %3 = load i32, ptr %2, align 4
  %call = call noundef signext i8 @_ZL9U_FAILURE10UErrorCode(i32 noundef %3)
  %tobool = icmp ne i8 %call, 0
  br i1 %tobool, label %if.then, label %if.end

if.then:                                          ; preds = %entry
  store i32 -1, ptr %retval, align 4
  br label %return

if.end:                                           ; preds = %entry
  %4 = load ptr, ptr %result.addr, align 8
  %cmp = icmp eq ptr %4, null
  br i1 %cmp, label %cond.true, label %cond.false

cond.true:                                        ; preds = %if.end
  %5 = load i32, ptr %resultLength.addr, align 4
  %cmp1 = icmp ne i32 %5, 0
  br i1 %cmp1, label %if.then3, label %if.end4

cond.false:                                       ; preds = %if.end
  %6 = load i32, ptr %resultLength.addr, align 4
  %cmp2 = icmp slt i32 %6, 0
  br i1 %cmp2, label %if.then3, label %if.end4

if.then3:                                         ; preds = %cond.false, %cond.true
  %7 = load ptr, ptr %status.addr, align 8
  store i32 1, ptr %7, align 4
  store i32 -1, ptr %retval, align 4
  br label %return

if.end4:                                          ; preds = %cond.false, %cond.true
  call void @_ZN6icu_7513UnicodeStringC2Ev(ptr noundef nonnull align 8 dereferenceable(64) %datePattern)
  %8 = load ptr, ptr %result.addr, align 8
  %cmp5 = icmp ne ptr %8, null
  br i1 %cmp5, label %if.then6, label %if.end8

if.then6:                                         ; preds = %if.end4
  %9 = load ptr, ptr %result.addr, align 8
  %10 = load i32, ptr %resultLength.addr, align 4
  %call7 = invoke noundef nonnull align 8 dereferenceable(64) ptr @_ZN6icu_7513UnicodeString5setToEPDsii(ptr noundef nonnull align 8 dereferenceable(64) %datePattern, ptr noundef %9, i32 noundef 0, i32 noundef %10)
          to label %invoke.cont unwind label %lpad

invoke.cont:                                      ; preds = %if.then6
  br label %if.end8

lpad:                                             ; preds = %invoke.cont9, %if.end8, %if.then6
  %11 = landingpad { ptr, i32 }
          cleanup
  %12 = extractvalue { ptr, i32 } %11, 0
  store ptr %12, ptr %exn.slot, align 8
  %13 = extractvalue { ptr, i32 } %11, 1
  store i32 %13, ptr %ehselector.slot, align 4
  br label %ehcleanup

if.end8:                                          ; preds = %invoke.cont, %if.end4
  %14 = load ptr, ptr %fmt.addr, align 8
  %15 = load ptr, ptr %status.addr, align 8
  %vtable = load ptr, ptr %14, align 8
  %vfn = getelementptr inbounds ptr, ptr %vtable, i64 30
  %16 = load ptr, ptr %vfn, align 8
  %call10 = invoke noundef nonnull align 8 dereferenceable(64) ptr %16(ptr noundef nonnull align 8 dereferenceable(760) %14, ptr noundef nonnull align 8 dereferenceable(64) %datePattern, ptr noundef nonnull align 4 dereferenceable(4) %15)
          to label %invoke.cont9 unwind label %lpad

invoke.cont9:                                     ; preds = %if.end8
  %17 = load ptr, ptr %result.addr, align 8
  invoke void @_ZN6icu_759Char16PtrC2EPDs(ptr noundef nonnull align 8 dereferenceable(8) %agg.tmp, ptr noundef %17)
          to label %invoke.cont11 unwind label %lpad

invoke.cont11:                                    ; preds = %invoke.cont9
  %18 = load i32, ptr %resultLength.addr, align 4
  %19 = load ptr, ptr %status.addr, align 8
  %call14 = invoke noundef i32 @_ZNK6icu_7513UnicodeString7extractENS_9Char16PtrEiR10UErrorCode(ptr noundef nonnull align 8 dereferenceable(64) %datePattern, ptr noundef %agg.tmp, i32 noundef %18, ptr noundef nonnull align 4 dereferenceable(4) %19)
          to label %invoke.cont13 unwind label %lpad12

invoke.cont13:                                    ; preds = %invoke.cont11
  store i32 %call14, ptr %retval, align 4
  call void @_ZN6icu_759Char16PtrD2Ev(ptr noundef nonnull align 8 dereferenceable(8) %agg.tmp) #6
  call void @_ZN6icu_7513UnicodeStringD1Ev(ptr noundef nonnull align 8 dereferenceable(64) %datePattern) #6
  br label %return

lpad12:                                           ; preds = %invoke.cont11
  %20 = landingpad { ptr, i32 }
          cleanup
  %21 = extractvalue { ptr, i32 } %20, 0
  store ptr %21, ptr %exn.slot, align 8
  %22 = extractvalue { ptr, i32 } %20, 1
  store i32 %22, ptr %ehselector.slot, align 4
  call void @_ZN6icu_759Char16PtrD2Ev(ptr noundef nonnull align 8 dereferenceable(8) %agg.tmp) #6
  br label %ehcleanup

ehcleanup:                                        ; preds = %lpad12, %lpad
  call void @_ZN6icu_7513UnicodeStringD1Ev(ptr noundef nonnull align 8 dereferenceable(64) %datePattern) #6
  br label %eh.resume

return:                                           ; preds = %invoke.cont13, %if.then3, %if.then
  %23 = load i32, ptr %retval, align 4
  ret i32 %23

eh.resume:                                        ; preds = %ehcleanup
  %exn = load ptr, ptr %exn.slot, align 8
  %sel = load i32, ptr %ehselector.slot, align 4
  %lpad.val = insertvalue { ptr, i32 } poison, ptr %exn, 0
  %lpad.val15 = insertvalue { ptr, i32 } %lpad.val, i32 %sel, 1
  resume { ptr, i32 } %lpad.val15
}